target datalayout = "e-m:e-p270:32:32-p271:32:32-p272:64:64-i64:64-i128:128-f80:128-n8:16:32:64-S128"
target triple = "x86_64-pc-linux-gnu"

%struct.mbedtls_psa_mac_operation_t = type { i32, %union.anon }
%union.anon = type { %struct.mbedtls_psa_hmac_operation_t }
%struct.mbedtls_psa_hmac_operation_t = type { i32, %struct.psa_hash_operation_s, [144 x i8] }
%struct.psa_hash_operation_s = type { i32, %union.psa_driver_hash_context_t }
%union.psa_driver_hash_context_t = type { %struct.mbedtls_psa_hash_operation_t }
%struct.mbedtls_psa_hash_operation_t = type { i32, %union.anon.0 }
%union.anon.0 = type { %struct.mbedtls_sha512_context }
%struct.mbedtls_sha512_context = type { [2 x i64], [8 x i64], [128 x i8], i32 }

; Function Attrs: nounwind uwtable
define hidden i32 @mbedtls_psa_mac_verify_finish(ptr noundef %0, ptr noundef %1, i64 noundef %2) #0 {
  %4 = alloca i32, align 4
  %5 = alloca ptr, align 8
  %6 = alloca ptr, align 8
  %7 = alloca i64, align 8
  %8 = alloca [64 x i8], align 16
  %9 = alloca i32, align 4
  %10 = alloca i32, align 4
  store ptr %0, ptr %5, align 8, !tbaa !3
  store ptr %1, ptr %6, align 8, !tbaa !12
  store i64 %2, ptr %7, align 8, !tbaa !14
  call void @llvm.lifetime.start.p0(i64 64, ptr %8) #6
  call void @llvm.lifetime.start.p0(i64 4, ptr %9) #6
  store i32 -151, ptr %9, align 4, !tbaa !16
  %11 = load ptr, ptr %5, align 8, !tbaa !3
  %12 = getelementptr inbounds nuw %struct.mbedtls_psa_mac_operation_t, ptr %11, i32 0, i32 0
  %13 = load i32, ptr %12, align 8, !tbaa !7
  %14 = icmp eq i32 %13, 0
  br i1 %14, label %15, label %16

15:                                               ; preds = %3
  store i32 -137, ptr %4, align 4
  store i32 1, ptr %10, align 4
  br label %39

16:                                               ; preds = %3
  %17 = load i64, ptr %7, align 8, !tbaa !14
  %18 = icmp ugt i64 %17, 64
  br i1 %18, label %19, label %20

19:                                               ; preds = %16
  store i32 -135, ptr %4, align 4
  store i32 1, ptr %10, align 4
  br label %39

20:                                               ; preds = %16
  %21 = load ptr, ptr %5, align 8, !tbaa !3
  %22 = getelementptr inbounds [64 x i8], ptr %8, i64 0, i64 0
  %23 = load i64, ptr %7, align 8, !tbaa !14
  %24 = call i32 @psa_mac_finish_internal(ptr noundef %21, ptr noundef %22, i64 noundef %23)
  store i32 %24, ptr %9, align 4, !tbaa !16
  %25 = load i32, ptr %9, align 4, !tbaa !16
  %26 = icmp ne i32 %25, 0
  br i1 %26, label %27, label %28

27:                                               ; preds = %20
  br label %36

28:                                               ; preds = %20
  %29 = load ptr, ptr %6, align 8, !tbaa !12
  %30 = getelementptr inbounds [64 x i8], ptr %8, i64 0, i64 0
  %31 = load i64, ptr %7, align 8, !tbaa !14
  %32 = call i32 @mbedtls_ct_memcmp(ptr noundef %29, ptr noundef %30, i64 noundef %31)
  %33 = icmp ne i32 %32, 0
  br i1 %33, label %34, label %35

34:                                               ; preds = %28
  store i32 -149, ptr %9, align 4, !tbaa !16
  br label %35

35:                                               ; preds = %34, %28
  br label %36

36:                                               ; preds = %35, %27
  %37 = getelementptr inbounds [64 x i8], ptr %8, i64 0, i64 0
  call void @mbedtls_platform_zeroize(ptr noundef %37, i64 noundef 64)
  %38 = load i32, ptr %9, align 4, !tbaa !16
  store i32 %38, ptr %4, align 4
  store i32 1, ptr %10, align 4
  br label %39

39:                                               ; preds = %36, %19, %15
  call void @llvm.lifetime.end.p0(i64 4, ptr %9) #6
  call void @llvm.lifetime.end.p0(i64 64, ptr %8) #6
  %40 = load i32, ptr %4, align 4
  ret i32 %40
}