; Function Attrs: nounwind uwtable
define hidden i32 @mbedtls_psa_mac_verify_finish(ptr noundef %0, ptr noundef %1, i64 noundef %2) local_unnamed_addr #0 {
  %4 = alloca [64 x i8], align 16
  call void @llvm.lifetime.start.p0(i64 64, ptr nonnull %4) #5
  %5 = load i32, ptr %0, align 8, !tbaa !3
  %6 = icmp eq i32 %5, 0
  br i1 %6, label %14, label %7

7:                                                ; preds = %3
  %8 = icmp ugt i64 %2, 64
  br i1 %8, label %14, label %9

9:                                                ; preds = %7
  %10 = call fastcc i32 @psa_mac_finish_internal(ptr noundef nonnull %0, ptr noundef nonnull %4, i64 noundef %2)
  %.not = icmp eq i32 %10, 0
  br i1 %.not, label %11, label %13

11:                                               ; preds = %9
  %12 = call i32 @mbedtls_ct_memcmp(ptr noundef %1, ptr noundef nonnull %4, i64 noundef %2) #5
  %.not11 = icmp eq i32 %12, 0
  %spec.select = select i1 %.not11, i32 0, i32 -149
  br label %13

13:                                               ; preds = %11, %9
  %.0 = phi i32 [ %10, %9 ], [ %spec.select, %11 ]
  call void @mbedtls_platform_zeroize(ptr noundef nonnull %4, i64 noundef 64) #5
  br label %14

14:                                               ; preds = %7, %3, %13
  %.08 = phi i32 [ %.0, %13 ], [ -137, %3 ], [ -135, %7 ]
  call void @llvm.lifetime.end.p0(i64 64, ptr nonnull %4) #5
  ret i32 %.08
}